; ModuleID = '54/631.c'
source_filename = "54/631.c"
target datalayout = "e-m:e-p270:32:32-p271:32:32-p272:64:64-i64:64-f80:128-n8:16:32:64-S128"
target triple = "x86_64-pc-linux-gnu"

@.str = private unnamed_addr constant [5 x i8] c"%d%d\00", align 1
@.str.1 = private unnamed_addr constant [4 x i8] c"%d\0A\00", align 1

; Function Attrs: noinline nounwind uwtable
define dso_local i32 @main() #0 {
  %1 = alloca i32, align 4
  %2 = alloca i32, align 4
  %3 = alloca i32, align 4
  %4 = alloca i32, align 4
  %5 = alloca i32, align 4
  %6 = alloca i32, align 4
  %7 = alloca i32, align 4
  store i32 0, i32* %1, align 4
  %8 = call i32 (i8*, ...) @__isoc99_scanf(i8* getelementptr inbounds ([5 x i8], [5 x i8]* @.str, i64 0, i64 0), i32* %3, i32* %4)
  %9 = load i32, i32* %3, align 4
  store i32 %9, i32* %2, align 4
  br label %10

10:                                               ; preds = %56, %0
  %11 = load i32, i32* %2, align 4
  store i32 %11, i32* %6, align 4
  store i32 1, i32* %7, align 4
  br label %12

12:                                               ; preds = %39, %10
  %13 = load i32, i32* %7, align 4
  %14 = load i32, i32* %3, align 4
  %15 = icmp sle i32 %13, %14
  br i1 %15, label %16, label %42

16:                                               ; preds = %12
  %17 = load i32, i32* %2, align 4
  %18 = load i32, i32* %2, align 4
  %19 = load i32, i32* %3, align 4
  %20 = sdiv i32 %18, %19
  %21 = load i32, i32* %3, align 4
  %22 = mul nsw i32 %20, %21
  %23 = sub nsw i32 %17, %22
  store i32 %23, i32* %5, align 4
  %24 = load i32, i32* %5, align 4
  %25 = load i32, i32* %4, align 4
  %26 = icmp ne i32 %24, %25
  br i1 %26, label %27, label %28

27:                                               ; preds = %16
  br label %42

28:                                               ; preds = %16
  %29 = load i32, i32* %2, align 4
  %30 = load i32, i32* %3, align 4
  %31 = sdiv i32 %29, %30
  %32 = load i32, i32* %3, align 4
  %33 = mul nsw i32 %31, %32
  %34 = load i32, i32* %2, align 4
  %35 = load i32, i32* %3, align 4
  %36 = sdiv i32 %34, %35
  %37 = sub nsw i32 %33, %36
  store i32 %37, i32* %2, align 4
  br label %38

38:                                               ; preds = %28
  br label %39

39:                                               ; preds = %38
  %40 = load i32, i32* %7, align 4
  %41 = add nsw i32 %40, 1
  store i32 %41, i32* %7, align 4
  br label %12

42:                                               ; preds = %27, %12
  %43 = load i32, i32* %7, align 4
  %44 = load i32, i32* %3, align 4
  %45 = add nsw i32 %44, 1
  %46 = icmp eq i32 %43, %45
  br i1 %46, label %47, label %53

47:                                               ; preds = %42
  %48 = load i32, i32* %2, align 4
  %49 = icmp sge i32 %48, 1
  br i1 %49, label %50, label %53

50:                                               ; preds = %47
  %51 = load i32, i32* %6, align 4
  %52 = call i32 (i8*, ...) @printf(i8* getelementptr inbounds ([4 x i8], [4 x i8]* @.str.1, i64 0, i64 0), i32 %51)
  br label %59

53:                                               ; preds = %47, %42
  %54 = load i32, i32* %6, align 4
  store i32 %54, i32* %2, align 4
  br label %55

55:                                               ; preds = %53
  br label %56

56:                                               ; preds = %55
  %57 = load i32, i32* %2, align 4
  %58 = add nsw i32 %57, 1
  store i32 %58, i32* %2, align 4
  br label %10

59:                                               ; preds = %50
  ret i32 0
}

declare dso_local i32 @__isoc99_scanf(i8*, ...) #1

declare dso_local i32 @printf(i8*, ...) #1


!llvm.module.flags = !{!0}
!llvm.ident = !{!1}

!0 = !{i32 1, !"wchar_size", i32 4}
!1 = !{!"clang version 10.0.0-4ubuntu1 "}
