; ModuleID = 'source-C-CXX/53/631.c'
source_filename = "source-C-CXX/53/631.c"
target datalayout = "e-m:e-p270:32:32-p271:32:32-p272:64:64-i64:64-f80:128-n8:16:32:64-S128"
target triple = "x86_64-pc-linux-gnu"

@.str = private unnamed_addr constant [5 x i8] c"%d%d\00", align 1
@.str.1 = private unnamed_addr constant [4 x i8] c"%d\0A\00", align 1

; Function Attrs: nofree nounwind sspstrong uwtable
define dso_local i32 @main() local_unnamed_addr #0 {
  %1 = alloca i32, align 4
  %2 = alloca i32, align 4
  %3 = bitcast i32* %1 to i8*
  call void @llvm.lifetime.start.p0i8(i64 4, i8* nonnull %3) #3
  %4 = bitcast i32* %2 to i8*
  call void @llvm.lifetime.start.p0i8(i64 4, i8* nonnull %4) #3
  %5 = call i32 (i8*, ...) @__isoc99_scanf(i8* getelementptr inbounds ([5 x i8], [5 x i8]* @.str, i64 0, i64 0), i32* nonnull %1, i32* nonnull %2)
  %6 = load i32, i32* %1, align 4, !tbaa !5
  %7 = load i32, i32* %2, align 4
  %8 = icmp slt i32 %6, 1
  %9 = add i32 %6, 1
  br i1 %8, label %10, label %13

10:                                               ; preds = %0
  %11 = icmp eq i32 %6, 0
  br i1 %11, label %33, label %12

12:                                               ; preds = %10, %12
  br label %12

13:                                               ; preds = %0, %26
  %14 = phi i32 [ %32, %26 ], [ %6, %0 ]
  br label %15

15:                                               ; preds = %13, %22
  %16 = phi i32 [ 1, %13 ], [ %24, %22 ]
  %17 = phi i32 [ %14, %13 ], [ %23, %22 ]
  %18 = sdiv i32 %17, %6
  %19 = mul nsw i32 %18, %6
  %20 = srem i32 %17, %6
  %21 = icmp eq i32 %20, %7
  br i1 %21, label %22, label %26

22:                                               ; preds = %15
  %23 = sub nsw i32 %19, %18
  %24 = add nuw i32 %16, 1
  %25 = icmp eq i32 %16, %6
  br i1 %25, label %26, label %15, !llvm.loop !9

26:                                               ; preds = %22, %15
  %27 = phi i32 [ %17, %15 ], [ %23, %22 ]
  %28 = phi i32 [ %16, %15 ], [ %9, %22 ]
  %29 = icmp eq i32 %28, %9
  %30 = icmp sgt i32 %27, 0
  %31 = select i1 %29, i1 %30, i1 false
  %32 = add nsw i32 %14, 1
  br i1 %31, label %33, label %13

33:                                               ; preds = %26, %10
  %34 = phi i32 [ 1, %10 ], [ %14, %26 ]
  %35 = call i32 (i8*, ...) @printf(i8* nonnull dereferenceable(1) getelementptr inbounds ([4 x i8], [4 x i8]* @.str.1, i64 0, i64 0), i32 %34)
  call void @llvm.lifetime.end.p0i8(i64 4, i8* nonnull %4) #3
  call void @llvm.lifetime.end.p0i8(i64 4, i8* nonnull %3) #3
  ret i32 0
}

; Function Attrs: argmemonly mustprogress nofree nosync nounwind willreturn
declare void @llvm.lifetime.start.p0i8(i64 immarg, i8* nocapture) #1

; Function Attrs: nofree nounwind
declare noundef i32 @__isoc99_scanf(i8* nocapture noundef readonly, ...) local_unnamed_addr #2

; Function Attrs: nofree nounwind
declare noundef i32 @printf(i8* nocapture noundef readonly, ...) local_unnamed_addr #2

; Function Attrs: argmemonly mustprogress nofree nosync nounwind willreturn
declare void @llvm.lifetime.end.p0i8(i64 immarg, i8* nocapture) #1


!llvm.module.flags = !{!0, !1, !2, !3}
!llvm.ident = !{!4}

!0 = !{i32 1, !"wchar_size", i32 4}
!1 = !{i32 7, !"PIC Level", i32 2}
!2 = !{i32 7, !"PIE Level", i32 2}
!3 = !{i32 7, !"uwtable", i32 1}
!4 = !{!"clang version 13.0.0"}
!5 = !{!6, !6, i64 0}
!6 = !{!"int", !7, i64 0}
!7 = !{!"omnipotent char", !8, i64 0}
!8 = !{!"Simple C/C++ TBAA"}
!9 = distinct !{!9, !10}
!10 = !{!"llvm.loop.mustprogress"}
